; Function Attrs: nounwind uwtable
define ptr @l_Lean_Json_opt___at___private_Lean_Data_Lsp_LanguageFeatures_0__Lean_Lsp_toJsonDocumentHighlight____x40_Lean_Data_Lsp_LanguageFeatures___hyg_4658____spec__1(ptr noundef %0, ptr noundef %1) local_unnamed_addr #0 {
  %3 = ptrtoint ptr %1 to i64
  %4 = and i64 %3, 1
  %.not.i33 = icmp eq i64 %4, 0
  br i1 %.not.i33, label %8, label %5

5:                                                ; preds = %2
  %6 = lshr i64 %3, 1
  %7 = trunc i64 %6 to i32
  br label %lean_obj_tag.exit

8:                                                ; preds = %2
  %9 = getelementptr i8, ptr %1, i64 4
  %.val.i = load i32, ptr %9, align 4
  %10 = lshr i32 %.val.i, 24
  br label %lean_obj_tag.exit

lean_obj_tag.exit:                                ; preds = %5, %8
  %.0.i = phi i32 [ %7, %5 ], [ %10, %8 ]
  %11 = icmp eq i32 %.0.i, 0
  br i1 %11, label %12, label %22

12:                                               ; preds = %lean_obj_tag.exit
  %13 = ptrtoint ptr %0 to i64
  %14 = and i64 %13, 1
  %.not = icmp eq i64 %14, 0
  br i1 %.not, label %15, label %lean_dec.exit

15:                                               ; preds = %12
  %16 = load i32, ptr %0, align 4, !tbaa !8
  %17 = icmp sgt i32 %16, 1
  br i1 %17, label %18, label %20, !prof !11

18:                                               ; preds = %15
  %19 = add nsw i32 %16, -1
  store i32 %19, ptr %0, align 4, !tbaa !8
  br label %lean_dec.exit

20:                                               ; preds = %15
  %.not.i = icmp eq i32 %16, 0
  br i1 %.not.i, label %lean_dec.exit, label %21

21:                                               ; preds = %20
  tail call void @lean_dec_ref_cold(ptr noundef nonnull %0) #9
  br label %lean_dec.exit

22:                                               ; preds = %lean_obj_tag.exit
  %23 = getelementptr inbounds nuw i8, ptr %1, i64 8
  %24 = load ptr, ptr %23, align 8, !tbaa !4
  %25 = ptrtoint ptr %24 to i64
  %26 = lshr i64 %25, 1
  %27 = trunc i64 %26 to i8
  switch i8 %27, label %56 [
    i8 0, label %28
    i8 1, label %42
  ]

28:                                               ; preds = %22
  %29 = load ptr, ptr @l_Lean_Lsp_instToJsonCompletionItemTag___closed__2, align 8, !tbaa !4
  tail call void @lean_inc_heartbeat() #9
  %30 = tail call noalias ptr @mi_malloc_small(i64 noundef 24) #9
  %31 = icmp eq ptr %30, null
  br i1 %31, label %32, label %lean_alloc_ctor.exit

32:                                               ; preds = %28
  tail call void @lean_internal_panic_out_of_memory() #10
  unreachable

lean_alloc_ctor.exit:                             ; preds = %28
  %33 = getelementptr inbounds nuw i8, ptr %30, i64 4
  store i32 1, ptr %30, align 4, !tbaa !8
  store i32 131096, ptr %33, align 4
  %34 = getelementptr inbounds nuw i8, ptr %30, i64 8
  store ptr %0, ptr %34, align 8, !tbaa !4
  %35 = getelementptr inbounds nuw i8, ptr %30, i64 16
  store ptr %29, ptr %35, align 8, !tbaa !4
  tail call void @lean_inc_heartbeat() #9
  %36 = tail call noalias ptr @mi_malloc_small(i64 noundef 24) #9
  %37 = icmp eq ptr %36, null
  br i1 %37, label %38, label %lean_alloc_ctor.exit34

38:                                               ; preds = %lean_alloc_ctor.exit
  tail call void @lean_internal_panic_out_of_memory() #10
  unreachable

lean_alloc_ctor.exit34:                           ; preds = %lean_alloc_ctor.exit
  %39 = getelementptr inbounds nuw i8, ptr %36, i64 4
  store i32 1, ptr %36, align 4, !tbaa !8
  store i32 16908312, ptr %39, align 4
  %40 = getelementptr inbounds nuw i8, ptr %36, i64 8
  store ptr %30, ptr %40, align 8, !tbaa !4
  %41 = getelementptr inbounds nuw i8, ptr %36, i64 16
  store ptr inttoptr (i64 1 to ptr), ptr %41, align 8, !tbaa !4
  br label %lean_dec.exit

42:                                               ; preds = %22
  %43 = load ptr, ptr @l_Lean_Lsp_instToJsonDocumentHighlightKind___closed__2, align 8, !tbaa !4
  tail call void @lean_inc_heartbeat() #9
  %44 = tail call noalias ptr @mi_malloc_small(i64 noundef 24) #9
  %45 = icmp eq ptr %44, null
  br i1 %45, label %46, label %lean_alloc_ctor.exit35

46:                                               ; preds = %42
  tail call void @lean_internal_panic_out_of_memory() #10
  unreachable

lean_alloc_ctor.exit35:                           ; preds = %42
  %47 = getelementptr inbounds nuw i8, ptr %44, i64 4
  store i32 1, ptr %44, align 4, !tbaa !8
  store i32 131096, ptr %47, align 4
  %48 = getelementptr inbounds nuw i8, ptr %44, i64 8
  store ptr %0, ptr %48, align 8, !tbaa !4
  %49 = getelementptr inbounds nuw i8, ptr %44, i64 16
  store ptr %43, ptr %49, align 8, !tbaa !4
  tail call void @lean_inc_heartbeat() #9
  %50 = tail call noalias ptr @mi_malloc_small(i64 noundef 24) #9
  %51 = icmp eq ptr %50, null
  br i1 %51, label %52, label %lean_alloc_ctor.exit36

52:                                               ; preds = %lean_alloc_ctor.exit35
  tail call void @lean_internal_panic_out_of_memory() #10
  unreachable

lean_alloc_ctor.exit36:                           ; preds = %lean_alloc_ctor.exit35
  %53 = getelementptr inbounds nuw i8, ptr %50, i64 4
  store i32 1, ptr %50, align 4, !tbaa !8
  store i32 16908312, ptr %53, align 4
  %54 = getelementptr inbounds nuw i8, ptr %50, i64 8
  store ptr %44, ptr %54, align 8, !tbaa !4
  %55 = getelementptr inbounds nuw i8, ptr %50, i64 16
  store ptr inttoptr (i64 1 to ptr), ptr %55, align 8, !tbaa !4
  br label %lean_dec.exit

56:                                               ; preds = %22
  %57 = load ptr, ptr @l_Lean_Lsp_instToJsonDocumentHighlightKind___closed__4, align 8, !tbaa !4
  tail call void @lean_inc_heartbeat() #9
  %58 = tail call noalias ptr @mi_malloc_small(i64 noundef 24) #9
  %59 = icmp eq ptr %58, null
  br i1 %59, label %60, label %lean_alloc_ctor.exit37

60:                                               ; preds = %56
  tail call void @lean_internal_panic_out_of_memory() #10
  unreachable

lean_alloc_ctor.exit37:                           ; preds = %56
  %61 = getelementptr inbounds nuw i8, ptr %58, i64 4
  store i32 1, ptr %58, align 4, !tbaa !8
  store i32 131096, ptr %61, align 4
  %62 = getelementptr inbounds nuw i8, ptr %58, i64 8
  store ptr %0, ptr %62, align 8, !tbaa !4
  %63 = getelementptr inbounds nuw i8, ptr %58, i64 16
  store ptr %57, ptr %63, align 8, !tbaa !4
  tail call void @lean_inc_heartbeat() #9
  %64 = tail call noalias ptr @mi_malloc_small(i64 noundef 24) #9
  %65 = icmp eq ptr %64, null
  br i1 %65, label %66, label %lean_alloc_ctor.exit38

66:                                               ; preds = %lean_alloc_ctor.exit37
  tail call void @lean_internal_panic_out_of_memory() #10
  unreachable

lean_alloc_ctor.exit38:                           ; preds = %lean_alloc_ctor.exit37
  %67 = getelementptr inbounds nuw i8, ptr %64, i64 4
  store i32 1, ptr %64, align 4, !tbaa !8
  store i32 16908312, ptr %67, align 4
  %68 = getelementptr inbounds nuw i8, ptr %64, i64 8
  store ptr %58, ptr %68, align 8, !tbaa !4
  %69 = getelementptr inbounds nuw i8, ptr %64, i64 16
  store ptr inttoptr (i64 1 to ptr), ptr %69, align 8, !tbaa !4
  br label %lean_dec.exit

lean_dec.exit:                                    ; preds = %12, %18, %20, %21, %lean_alloc_ctor.exit34, %lean_alloc_ctor.exit36, %lean_alloc_ctor.exit38
  %.0 = phi ptr [ %64, %lean_alloc_ctor.exit38 ], [ %50, %lean_alloc_ctor.exit36 ], [ %36, %lean_alloc_ctor.exit34 ], [ inttoptr (i64 1 to ptr), %21 ], [ inttoptr (i64 1 to ptr), %20 ], [ inttoptr (i64 1 to ptr), %18 ], [ inttoptr (i64 1 to ptr), %12 ]
  ret ptr %.0
}